; Function Attrs: cold nounwind optsize uwtable
define internal range(i32 -12, 1) i32 @decode_init(ptr noundef captures(none) initializes((136, 140)) %0) #0 {
  %2 = getelementptr inbounds nuw i8, ptr %0, i64 32
  %3 = load ptr, ptr %2, align 8, !tbaa !4
  %4 = getelementptr inbounds nuw i8, ptr %0, i64 136
  store i32 11, ptr %4, align 8, !tbaa !27
  %5 = tail call ptr @av_frame_alloc() #7
  store ptr %5, ptr %3, align 8, !tbaa !28
  %6 = tail call ptr @av_frame_alloc() #7
  %7 = getelementptr inbounds nuw i8, ptr %3, i64 8
  store ptr %6, ptr %7, align 8, !tbaa !28
  %8 = load ptr, ptr %3, align 8, !tbaa !28
  %.not = icmp eq ptr %8, null
  %.not6 = icmp eq ptr %6, null
  %or.cond = select i1 %.not, i1 true, i1 %.not6
  %.0 = select i1 %or.cond, i32 -12, i32 0
  ret i32 %.0
}